target datalayout = "e-m:e-p270:32:32-p271:32:32-p272:64:64-i64:64-i128:128-f80:128-n8:16:32:64-S128"
target triple = "x86_64-pc-linux-gnu"

%struct.prolog_state = type { ptr, i32, i32, i32, i32, i32 }
%struct.encoding = type { [4 x ptr], [2 x ptr], ptr, ptr, ptr, ptr, ptr, ptr, ptr, ptr, ptr, ptr, i32, i8, i8 }

@KW_SYSTEM = internal constant [7 x i8] c"SYSTEM\00", align 1
@KW_PUBLIC = internal constant [7 x i8] c"PUBLIC\00", align 1

; Function Attrs: nounwind uwtable
define internal i32 @common(ptr noundef %0, i32 noundef %1) #0 {
  %3 = alloca i32, align 4
  %4 = alloca ptr, align 8
  %5 = alloca i32, align 4
  store ptr %0, ptr %4, align 8, !tbaa !3
  store i32 %1, ptr %5, align 4, !tbaa !14
  %6 = load ptr, ptr %4, align 8, !tbaa !3
  %7 = getelementptr inbounds nuw %struct.prolog_state, ptr %6, i32 0, i32 4
  %8 = load i32, ptr %7, align 4, !tbaa !11
  %9 = icmp ne i32 %8, 0
  br i1 %9, label %14, label %10

10:                                               ; preds = %2
  %11 = load i32, ptr %5, align 4, !tbaa !14
  %12 = icmp eq i32 %11, 28
  br i1 %12, label %13, label %14

13:                                               ; preds = %10
  store i32 59, ptr %3, align 4
  br label %17

14:                                               ; preds = %10, %2
  %15 = load ptr, ptr %4, align 8, !tbaa !3
  %16 = getelementptr inbounds nuw %struct.prolog_state, ptr %15, i32 0, i32 0
  store ptr @error, ptr %16, align 8, !tbaa !8
  store i32 -1, ptr %3, align 4
  br label %17

17:                                               ; preds = %14, %13
  %18 = load i32, ptr %3, align 4
  ret i32 %18
}

; Function Attrs: nounwind uwtable
define internal i32 @doctype1(ptr noundef %0, i32 noundef %1, ptr noundef %2, ptr noundef %3, ptr noundef %4) #0 {
  %6 = alloca i32, align 4
  %7 = alloca ptr, align 8
  %8 = alloca i32, align 4
  %9 = alloca ptr, align 8
  %10 = alloca ptr, align 8
  %11 = alloca ptr, align 8
  store ptr %0, ptr %7, align 8, !tbaa !3
  store i32 %1, ptr %8, align 4, !tbaa !14
  store ptr %2, ptr %9, align 8, !tbaa !15
  store ptr %3, ptr %10, align 8, !tbaa !15
  store ptr %4, ptr %11, align 8, !tbaa !17
  %12 = load i32, ptr %8, align 4, !tbaa !14
  switch i32 %12, label %45 [
    i32 15, label %13
    i32 25, label %14
    i32 17, label %17
    i32 18, label %20
  ]

13:                                               ; preds = %5
  store i32 3, ptr %6, align 4
  br label %49

14:                                               ; preds = %5
  %15 = load ptr, ptr %7, align 8, !tbaa !3
  %16 = getelementptr inbounds nuw %struct.prolog_state, ptr %15, i32 0, i32 0
  store ptr @internalSubset, ptr %16, align 8, !tbaa !8
  store i32 7, ptr %6, align 4
  br label %49

17:                                               ; preds = %5
  %18 = load ptr, ptr %7, align 8, !tbaa !3
  %19 = getelementptr inbounds nuw %struct.prolog_state, ptr %18, i32 0, i32 0
  store ptr @prolog2, ptr %19, align 8, !tbaa !8
  store i32 8, ptr %6, align 4
  br label %49

20:                                               ; preds = %5
  %21 = load ptr, ptr %11, align 8, !tbaa !17
  %22 = getelementptr inbounds nuw %struct.encoding, ptr %21, i32 0, i32 2
  %23 = load ptr, ptr %22, align 8, !tbaa !19
  %24 = load ptr, ptr %11, align 8, !tbaa !17
  %25 = load ptr, ptr %9, align 8, !tbaa !15
  %26 = load ptr, ptr %10, align 8, !tbaa !15
  %27 = call i32 %23(ptr noundef %24, ptr noundef %25, ptr noundef %26, ptr noundef @KW_SYSTEM)
  %28 = icmp ne i32 %27, 0
  br i1 %28, label %29, label %32

29:                                               ; preds = %20
  %30 = load ptr, ptr %7, align 8, !tbaa !3
  %31 = getelementptr inbounds nuw %struct.prolog_state, ptr %30, i32 0, i32 0
  store ptr @doctype3, ptr %31, align 8, !tbaa !8
  store i32 3, ptr %6, align 4
  br label %49

32:                                               ; preds = %20
  %33 = load ptr, ptr %11, align 8, !tbaa !17
  %34 = getelementptr inbounds nuw %struct.encoding, ptr %33, i32 0, i32 2
  %35 = load ptr, ptr %34, align 8, !tbaa !19
  %36 = load ptr, ptr %11, align 8, !tbaa !17
  %37 = load ptr, ptr %9, align 8, !tbaa !15
  %38 = load ptr, ptr %10, align 8, !tbaa !15
  %39 = call i32 %35(ptr noundef %36, ptr noundef %37, ptr noundef %38, ptr noundef @KW_PUBLIC)
  %40 = icmp ne i32 %39, 0
  br i1 %40, label %41, label %44

41:                                               ; preds = %32
  %42 = load ptr, ptr %7, align 8, !tbaa !3
  %43 = getelementptr inbounds nuw %struct.prolog_state, ptr %42, i32 0, i32 0
  store ptr @doctype2, ptr %43, align 8, !tbaa !8
  store i32 3, ptr %6, align 4
  br label %49

44:                                               ; preds = %32
  br label %45

45:                                               ; preds = %5, %44
  %46 = load ptr, ptr %7, align 8, !tbaa !3
  %47 = load i32, ptr %8, align 4, !tbaa !14
  %48 = call i32 @common(ptr noundef %46, i32 noundef %47)
  store i32 %48, ptr %6, align 4
  br label %49

49:                                               ; preds = %45, %41, %29, %17, %14, %13
  %50 = load i32, ptr %6, align 4
  ret i32 %50
}