; Function Attrs: nounwind uwtable
define internal range(i32 -1, 60) i32 @doctype1(ptr noundef captures(none) %0, i32 noundef %1, ptr noundef %2, ptr noundef %3, ptr noundef %4) #1 {
  switch i32 %1, label %14 [
    i32 15, label %common.exit
    i32 25, label %common.exit.sink.split
    i32 17, label %6
    i32 18, label %7
  ]

6:                                                ; preds = %5
  br label %common.exit.sink.split

7:                                                ; preds = %5
  %8 = getelementptr inbounds nuw i8, ptr %4, i64 48
  %9 = load ptr, ptr %8, align 8, !tbaa !12
  %10 = tail call i32 %9(ptr noundef %4, ptr noundef %2, ptr noundef %3, ptr noundef nonnull @KW_SYSTEM) #5
  %.not = icmp eq i32 %10, 0
  br i1 %.not, label %11, label %common.exit.sink.split

11:                                               ; preds = %7
  %12 = load ptr, ptr %8, align 8, !tbaa !12
  %13 = tail call i32 %12(ptr noundef nonnull %4, ptr noundef %2, ptr noundef %3, ptr noundef nonnull @KW_PUBLIC) #5
  %.not15 = icmp eq i32 %13, 0
  br i1 %.not15, label %.thread, label %common.exit.sink.split

14:                                               ; preds = %5
  %15 = getelementptr inbounds nuw i8, ptr %0, i64 20
  %16 = load i32, ptr %15, align 4, !tbaa !9
  %17 = icmp eq i32 %16, 0
  %18 = icmp eq i32 %1, 28
  %or.cond.i = and i1 %18, %17
  br i1 %or.cond.i, label %common.exit, label %.thread

.thread:                                          ; preds = %11, %14
  br label %common.exit.sink.split

common.exit.sink.split:                           ; preds = %11, %7, %5, %6, %.thread
  %error.sink = phi ptr [ @error, %.thread ], [ @prolog2, %6 ], [ @internalSubset, %5 ], [ @doctype3, %7 ], [ @doctype2, %11 ]
  %.0.ph = phi i32 [ -1, %.thread ], [ 8, %6 ], [ 7, %5 ], [ 3, %7 ], [ 3, %11 ]
  store ptr %error.sink, ptr %0, align 8, !tbaa !3
  br label %common.exit

common.exit:                                      ; preds = %common.exit.sink.split, %14, %5
  %.0 = phi i32 [ 3, %5 ], [ 59, %14 ], [ %.0.ph, %common.exit.sink.split ]
  ret i32 %.0
}